target datalayout = "e-m:e-p270:32:32-p271:32:32-p272:64:64-i64:64-i128:128-f80:128-n8:16:32:64-S128"
target triple = "x86_64-pc-linux-gnu"

%struct.rb_symbols_t = type { i32, ptr, i64, i64 }
%struct.RSymbol = type { %struct.RBasic, i64, i64, i64 }
%struct.RBasic = type { i64, i64 }
%struct.RString = type { %struct.RBasic, i64, %union.anon }
%union.anon = type { %struct.anon }
%struct.anon = type { ptr, %union.anon.0 }
%union.anon.0 = type { i64 }
%struct.anon.1 = type { [1 x i8] }

@.str.5 = private unnamed_addr constant [12 x i8] c"../symbol.c\00", align 1
@ruby_symbol__create_semaphore = external global i16, section ".probes", align 2
@.str.13 = private unnamed_addr constant [1 x i8] zeroinitializer, align 1
@ruby_current_ec = external thread_local global ptr, align 8

; Function Attrs: inlinehint nounwind sspstrong willreturn memory(read) uwtable
define internal i64 @RB_FL_TEST_RAW(i64 noundef %0, i64 noundef %1) #8 {
  %3 = alloca i64, align 8
  %4 = alloca i64, align 8
  store i64 %0, ptr %3, align 8, !tbaa !11
  store i64 %1, ptr %4, align 8, !tbaa !11
  %5 = load i64, ptr %3, align 8, !tbaa !11
  %6 = inttoptr i64 %5 to ptr
  %7 = getelementptr inbounds nuw %struct.RBasic, ptr %6, i32 0, i32 0
  %8 = load i64, ptr %7, align 8, !tbaa !93
  %9 = load i64, ptr %4, align 8, !tbaa !11
  %10 = and i64 %8, %9
  ret i64 %10
}

; Function Attrs: inlinehint nounwind sspstrong willreturn memory(none) uwtable
define internal zeroext i1 @RB_IMMEDIATE_P(i64 noundef %0) #6 {
  %2 = alloca i64, align 8
  store i64 %0, ptr %2, align 8, !tbaa !11
  %3 = load i64, ptr %2, align 8, !tbaa !11
  %4 = and i64 %3, 7
  %5 = icmp ne i64 %4, 0
  ret i1 %5
}

; Function Attrs: inlinehint nounwind sspstrong willreturn memory(read) uwtable
define internal i64 @RSTRING_LEN(i64 noundef %0) #8 {
  %2 = alloca i64, align 8
  store i64 %0, ptr %2, align 8, !tbaa !11
  %3 = load i64, ptr %2, align 8, !tbaa !11
  %4 = inttoptr i64 %3 to ptr
  %5 = getelementptr inbounds nuw %struct.RString, ptr %4, i32 0, i32 1
  %6 = load i64, ptr %5, align 8, !tbaa !96
  ret i64 %6
}

; Function Attrs: inlinehint nounwind sspstrong willreturn memory(read) uwtable
define internal zeroext i1 @RB_FL_ANY_RAW(i64 noundef %0, i64 noundef %1) #8 {
  %3 = alloca i64, align 8
  %4 = alloca i64, align 8
  store i64 %0, ptr %3, align 8, !tbaa !11
  store i64 %1, ptr %4, align 8, !tbaa !11
  %5 = load i64, ptr %3, align 8, !tbaa !11
  %6 = load i64, ptr %4, align 8, !tbaa !11
  %7 = call i64 @RB_FL_TEST_RAW(i64 noundef %5, i64 noundef %6) #27
  %8 = icmp ne i64 %7, 0
  ret i1 %8
}

; Function Attrs: inlinehint nounwind sspstrong willreturn memory(none) uwtable
define internal zeroext i1 @RB_SPECIAL_CONST_P(i64 noundef %0) #6 {
  %2 = alloca i64, align 8
  store i64 %0, ptr %2, align 8, !tbaa !11
  %3 = load i64, ptr %2, align 8, !tbaa !11
  %4 = icmp eq i64 %3, 0
  br i1 %4, label %8, label %5

5:                                                ; preds = %1
  %6 = load i64, ptr %2, align 8, !tbaa !11
  %7 = call zeroext i1 @RB_IMMEDIATE_P(i64 noundef %6) #25
  br label %8

8:                                                ; preds = %5, %1
  %9 = phi i1 [ true, %1 ], [ %7, %5 ]
  ret i1 %9
}

; Function Attrs: inlinehint nounwind sspstrong willreturn memory(read, argmem: readwrite) uwtable
define internal void @rbimpl_rstring_getmem(ptr dead_on_unwind noalias writable sret(%struct.RString) align 8 %0, i64 noundef %1) #18 {
  %3 = alloca i64, align 8
  store i64 %1, ptr %3, align 8, !tbaa !11
  %4 = load i64, ptr %3, align 8, !tbaa !11
  %5 = call zeroext i1 @RB_FL_ANY_RAW(i64 noundef %4, i64 noundef 8192) #27
  br i1 %5, label %6, label %9

6:                                                ; preds = %2
  %7 = load i64, ptr %3, align 8, !tbaa !11
  %8 = inttoptr i64 %7 to ptr
  call void @llvm.memcpy.p0.p0.i64(ptr align 8 %0, ptr align 8 %8, i64 40, i1 false), !tbaa.struct !99
  br label %20

9:                                                ; preds = %2
  %10 = load i64, ptr %3, align 8, !tbaa !11
  %11 = call i64 @RSTRING_LEN(i64 noundef %10) #27
  %12 = getelementptr inbounds nuw %struct.RString, ptr %0, i32 0, i32 1
  store i64 %11, ptr %12, align 8, !tbaa !96
  %13 = load i64, ptr %3, align 8, !tbaa !11
  %14 = inttoptr i64 %13 to ptr
  %15 = getelementptr inbounds nuw %struct.RString, ptr %14, i32 0, i32 2
  %16 = getelementptr inbounds nuw %struct.anon.1, ptr %15, i32 0, i32 0
  %17 = getelementptr inbounds [1 x i8], ptr %16, i64 0, i64 0
  %18 = getelementptr inbounds nuw %struct.RString, ptr %0, i32 0, i32 2
  %19 = getelementptr inbounds nuw %struct.anon, ptr %18, i32 0, i32 0
  store ptr %17, ptr %19, align 8, !tbaa !22
  br label %20

20:                                               ; preds = %9, %6
  ret void
}

; Function Attrs: inlinehint nounwind sspstrong uwtable
define internal i64 @rb_obj_written(i64 noundef %0, i64 noundef %1, i64 noundef %2, ptr noundef %3, i32 noundef %4) #4 {
  %6 = alloca i64, align 8
  %7 = alloca i64, align 8
  %8 = alloca i64, align 8
  %9 = alloca ptr, align 8
  %10 = alloca i32, align 4
  store i64 %0, ptr %6, align 8, !tbaa !11
  store i64 %1, ptr %7, align 8, !tbaa !11
  store i64 %2, ptr %8, align 8, !tbaa !11
  store ptr %3, ptr %9, align 8, !tbaa !33
  store i32 %4, ptr %10, align 4, !tbaa !21
  %11 = load i64, ptr %8, align 8, !tbaa !11
  %12 = call zeroext i1 @RB_SPECIAL_CONST_P(i64 noundef %11) #25
  br i1 %12, label %16, label %13

13:                                               ; preds = %5
  %14 = load i64, ptr %6, align 8, !tbaa !11
  %15 = load i64, ptr %8, align 8, !tbaa !11
  call void @rb_gc_writebarrier(i64 noundef %14, i64 noundef %15)
  br label %16

16:                                               ; preds = %13, %5
  %17 = load i64, ptr %6, align 8, !tbaa !11
  ret i64 %17
}

; Function Attrs: inlinehint nounwind sspstrong uwtable
define internal ptr @RSTRING_PTR(i64 noundef %0) #4 {
  %2 = alloca i64, align 8
  %3 = alloca ptr, align 8
  %4 = alloca %struct.RString, align 8
  store i64 %0, ptr %2, align 8, !tbaa !11
  call void @llvm.lifetime.start.p0(i64 8, ptr %3) #24
  %5 = load i64, ptr %2, align 8, !tbaa !11
  call void @rbimpl_rstring_getmem(ptr dead_on_unwind writable sret(%struct.RString) align 8 %4, i64 noundef %5) #29
  %6 = getelementptr inbounds nuw %struct.RString, ptr %4, i32 0, i32 2
  %7 = getelementptr inbounds nuw %struct.anon, ptr %6, i32 0, i32 0
  %8 = load ptr, ptr %7, align 8, !tbaa !22
  store ptr %8, ptr %3, align 8, !tbaa !33
  %9 = load ptr, ptr %3, align 8, !tbaa !33
  call void @llvm.lifetime.end.p0(i64 8, ptr %3) #24
  ret ptr %9
}

; Function Attrs: nounwind sspstrong uwtable
define internal void @register_sym(ptr noundef %0, i64 noundef %1, i64 noundef %2) #0 {
  %4 = alloca ptr, align 8
  %5 = alloca i64, align 8
  %6 = alloca i64, align 8
  store ptr %0, ptr %4, align 8, !tbaa !7
  store i64 %1, ptr %5, align 8, !tbaa !11
  store i64 %2, ptr %6, align 8, !tbaa !11
  %7 = load ptr, ptr %4, align 8, !tbaa !7
  %8 = getelementptr inbounds nuw %struct.rb_symbols_t, ptr %7, i32 0, i32 1
  %9 = load ptr, ptr %8, align 8, !tbaa !17
  %10 = load i64, ptr %5, align 8, !tbaa !11
  %11 = load i64, ptr %6, align 8, !tbaa !11
  call void @rb_st_add_direct(ptr noundef %9, i64 noundef %10, i64 noundef %11)
  ret void
}

; Function Attrs: inlinehint nounwind sspstrong uwtable
define internal i64 @rb_obj_write(i64 noundef %0, ptr noundef %1, i64 noundef %2, ptr noundef %3, i32 noundef %4) #4 {
  %6 = alloca i64, align 8
  %7 = alloca ptr, align 8
  %8 = alloca i64, align 8
  %9 = alloca ptr, align 8
  %10 = alloca i32, align 4
  store i64 %0, ptr %6, align 8, !tbaa !11
  store ptr %1, ptr %7, align 8, !tbaa !46
  store i64 %2, ptr %8, align 8, !tbaa !11
  store ptr %3, ptr %9, align 8, !tbaa !33
  store i32 %4, ptr %10, align 4, !tbaa !21
  %11 = load i64, ptr %8, align 8, !tbaa !11
  %12 = load ptr, ptr %7, align 8, !tbaa !46
  store i64 %11, ptr %12, align 8, !tbaa !11
  %13 = load i64, ptr %6, align 8, !tbaa !11
  %14 = load i64, ptr %8, align 8, !tbaa !11
  %15 = load ptr, ptr %9, align 8, !tbaa !33
  %16 = load i32, ptr %10, align 4, !tbaa !21
  %17 = call i64 @rb_obj_written(i64 noundef %13, i64 noundef 36, i64 noundef %14, ptr noundef %15, i32 noundef %16)
  %18 = load i64, ptr %6, align 8, !tbaa !11
  ret i64 %18
}

; Function Attrs: inlinehint nounwind sspstrong uwtable
define internal ptr @rb_current_execution_context(i1 noundef zeroext %0) #4 {
  %2 = alloca i8, align 1
  %3 = alloca ptr, align 8
  %4 = zext i1 %0 to i8
  store i8 %4, ptr %2, align 1, !tbaa !42
  call void @llvm.lifetime.start.p0(i64 8, ptr %3) #24
  %5 = call align 8 ptr @llvm.threadlocal.address.p0(ptr align 8 @ruby_current_ec)
  %6 = load ptr, ptr %5, align 8, !tbaa !80
  store ptr %6, ptr %3, align 8, !tbaa !80
  %7 = load ptr, ptr %3, align 8, !tbaa !80
  call void @llvm.lifetime.end.p0(i64 8, ptr %3) #24
  ret ptr %7
}

; Function Attrs: nounwind sspstrong uwtable
define internal i64 @dsymbol_alloc(ptr noundef %0, i64 noundef %1, i64 noundef %2, ptr noundef %3, i64 noundef %4) #0 {
  %6 = alloca ptr, align 8
  %7 = alloca i64, align 8
  %8 = alloca i64, align 8
  %9 = alloca ptr, align 8
  %10 = alloca i64, align 8
  %11 = alloca ptr, align 8
  %12 = alloca i64, align 8
  %13 = alloca i32, align 4
  %14 = alloca ptr, align 8
  store ptr %0, ptr %6, align 8, !tbaa !7
  store i64 %1, ptr %7, align 8, !tbaa !11
  store i64 %2, ptr %8, align 8, !tbaa !11
  store ptr %3, ptr %9, align 8, !tbaa !19
  store i64 %4, ptr %10, align 8, !tbaa !11
  call void @llvm.lifetime.start.p0(i64 8, ptr %11) #24
  %15 = call ptr @rb_current_execution_context(i1 noundef zeroext true)
  %16 = load i64, ptr %7, align 8, !tbaa !11
  %17 = call i64 @rb_wb_protected_newobj_of(ptr noundef %15, i64 noundef %16, i64 noundef 20, i64 noundef 40)
  %18 = inttoptr i64 %17 to ptr
  store ptr %18, ptr %11, align 8, !tbaa !49
  call void @llvm.lifetime.start.p0(i64 8, ptr %12) #24
  %19 = load ptr, ptr %11, align 8, !tbaa !49
  %20 = ptrtoint ptr %19 to i64
  %21 = load ptr, ptr %9, align 8, !tbaa !19
  %22 = call i32 @rb_enc_to_index(ptr noundef %21) #27
  call void @rb_enc_set_index(i64 noundef %20, i32 noundef %22)
  %23 = load ptr, ptr %11, align 8, !tbaa !49
  %24 = ptrtoint ptr %23 to i64
  call void @rb_obj_freeze_inline(i64 noundef %24)
  %25 = load ptr, ptr %11, align 8, !tbaa !49
  %26 = ptrtoint ptr %25 to i64
  %27 = load ptr, ptr %11, align 8, !tbaa !49
  %28 = getelementptr inbounds nuw %struct.RSymbol, ptr %27, i32 0, i32 2
  %29 = load i64, ptr %8, align 8, !tbaa !11
  %30 = call i64 @rb_obj_write(i64 noundef %26, ptr noundef %28, i64 noundef %29, ptr noundef @.str.5, i32 noundef 671)
  %31 = load i64, ptr %10, align 8, !tbaa !11
  %32 = load ptr, ptr %11, align 8, !tbaa !49
  %33 = getelementptr inbounds nuw %struct.RSymbol, ptr %32, i32 0, i32 3
  store i64 %31, ptr %33, align 8, !tbaa !29
  %34 = load i64, ptr %8, align 8, !tbaa !11
  %35 = call i64 @rb_str_hash(i64 noundef %34)
  store i64 %35, ptr %12, align 8, !tbaa !11
  %36 = load i64, ptr %12, align 8, !tbaa !11
  %37 = ashr i64 %36, 1
  %38 = load ptr, ptr %11, align 8, !tbaa !49
  %39 = getelementptr inbounds nuw %struct.RSymbol, ptr %38, i32 0, i32 1
  store i64 %37, ptr %39, align 8, !tbaa !51
  %40 = load ptr, ptr %6, align 8, !tbaa !7
  %41 = load i64, ptr %8, align 8, !tbaa !11
  %42 = load ptr, ptr %11, align 8, !tbaa !49
  %43 = ptrtoint ptr %42 to i64
  call void @register_sym(ptr noundef %40, i64 noundef %41, i64 noundef %43)
  %44 = load ptr, ptr %6, align 8, !tbaa !7
  %45 = getelementptr inbounds nuw %struct.rb_symbols_t, ptr %44, i32 0, i32 3
  %46 = load i64, ptr %45, align 8, !tbaa !13
  %47 = load i64, ptr %8, align 8, !tbaa !11
  %48 = call i64 @rb_hash_aset(i64 noundef %46, i64 noundef %47, i64 noundef 20)
  br label %49

49:                                               ; preds = %5
  %50 = load i16, ptr @ruby_symbol__create_semaphore, align 2, !tbaa !52
  %51 = zext i16 %50 to i64
  %52 = call i64 @llvm.expect.i64(i64 %51, i64 0)
  %53 = icmp ne i64 %52, 0
  %54 = xor i1 %53, true
  %55 = xor i1 %54, true
  %56 = zext i1 %55 to i32
  %57 = sext i32 %56 to i64
  %58 = call i64 @llvm.expect.i64(i64 %57, i64 0)
  %59 = icmp ne i64 %58, 0
  br i1 %59, label %60, label %75

60:                                               ; preds = %49
  call void @llvm.lifetime.start.p0(i64 4, ptr %13) #24
  call void @llvm.lifetime.start.p0(i64 8, ptr %14) #24
  %61 = call ptr @rb_source_location_cstr(ptr noundef %13)
  store ptr %61, ptr %14, align 8, !tbaa !33
  %62 = load ptr, ptr %14, align 8, !tbaa !33
  %63 = icmp ne ptr %62, null
  br i1 %63, label %65, label %64

64:                                               ; preds = %60
  store ptr @.str.13, ptr %14, align 8, !tbaa !33
  br label %65

65:                                               ; preds = %64, %60
  br label %66

66:                                               ; preds = %65
  call void asm sideeffect "", "*m,~{dirflag},~{fpsr},~{flags}"(ptr elementtype(i16) @ruby_symbol__create_semaphore) #24, !srcloc !53
  %67 = load ptr, ptr %11, align 8, !tbaa !49
  %68 = getelementptr inbounds nuw %struct.RSymbol, ptr %67, i32 0, i32 2
  %69 = load i64, ptr %68, align 8, !tbaa !32
  %70 = call ptr @RSTRING_PTR(i64 noundef %69)
  %71 = load ptr, ptr %14, align 8, !tbaa !33
  %72 = load i32, ptr %13, align 4, !tbaa !21
  call void asm sideeffect ".altmacro\0A.macro _SDT_SIGN x\0A.pushsection .note.stapsdt,\22\22,\22note\22\0A.iflt \\x\0A.ascii \22-\22\0A.endif\0A.popsection\0A.endm\0A.macro _SDT_SIZE_ x\0A.pushsection .note.stapsdt,\22\22,\22note\22\0A.ascii \22\\x\22\0A.popsection\0A.endm\0A.macro _SDT_SIZE x\0A_SDT_SIZE_ %((-(-\\x*((-\\x>0)-(-\\x<0))))>>8)\0A.endm\0A.macro _SDT_TYPE_ x\0A.pushsection .note.stapsdt,\22\22,\22note\22\0A.ifc 8,\\x\0A.ascii \22f\22\0A.endif\0A.ascii \22@\22\0A.popsection\0A.endm\0A.macro _SDT_TYPE x\0A_SDT_TYPE_ %((\\x)&(0xff))\0A.endm\0A990: nop\0A.pushsection .note.stapsdt,\22?\22,\22note\22\0A.balign 4\0A.4byte 992f-991f,994f-993f,3\0A991: .asciz \22stapsdt\22\0A992: .balign 4\0A993: .8byte 990b\0A.8byte _.stapsdt.base\0A.8byte ruby_symbol__create_semaphore\0A.asciz \22ruby\22\0A.asciz \22symbol__create\22\0A_SDT_SIGN ${0:n}\0A_SDT_SIZE ${0:n}\0A_SDT_TYPE ${0:n}\0A.ascii \22$1\22\0A.ascii \22\\x20\22\0A_SDT_SIGN ${2:n}\0A_SDT_SIZE ${2:n}\0A_SDT_TYPE ${2:n}\0A.ascii \22$3\22\0A.ascii \22\\x20\22\0A_SDT_SIGN ${4:n}\0A_SDT_SIZE ${4:n}\0A_SDT_TYPE ${4:n}\0A.ascii \22$5\22\0A.ascii \22\\x00\22\0A.purgem _SDT_SIGN\0A.purgem _SDT_SIZE_\0A.purgem _SDT_SIZE\0A.purgem _SDT_TYPE_\0A.purgem _SDT_TYPE\0A994: .balign 4\0A.popsection\0A", "n,norfxy,n,norfxy,n,norfxy,~{dirflag},~{fpsr},~{flags}"(i32 -2053, ptr %70, i32 -2053, ptr %71, i32 1025, i32 %72) #24, !srcloc !54
  call void asm sideeffect ".ifndef _.stapsdt.base\0A.pushsection .stapsdt.base,\22aG\22,\22progbits\22,.stapsdt.base,comdat\0A.weak _.stapsdt.base\0A.hidden _.stapsdt.base\0A_.stapsdt.base: .space 1\0A.size _.stapsdt.base,1\0A.popsection\0A.endif\0A", "~{dirflag},~{fpsr},~{flags}"() #24, !srcloc !55
  br label %73

73:                                               ; preds = %66
  br label %74

74:                                               ; preds = %73
  call void @llvm.lifetime.end.p0(i64 8, ptr %14) #24
  call void @llvm.lifetime.end.p0(i64 4, ptr %13) #24
  br label %75

75:                                               ; preds = %74, %49
  br label %76

76:                                               ; preds = %75
  br label %77

77:                                               ; preds = %76
  %78 = load ptr, ptr %11, align 8, !tbaa !49
  %79 = ptrtoint ptr %78 to i64
  call void @llvm.lifetime.end.p0(i64 8, ptr %12) #24
  call void @llvm.lifetime.end.p0(i64 8, ptr %11) #24
  ret i64 %79
}