; Function Attrs: nounwind sspstrong uwtable
define internal fastcc noundef i64 @dsymbol_alloc(i64 noundef %0, i64 noundef %1, ptr noundef %2, i64 noundef range(i64 -1, 15) %3) unnamed_addr #0 {
  %5 = alloca i32, align 4
  %6 = tail call align 8 ptr @llvm.threadlocal.address.p0(ptr align 8 @ruby_current_ec)
  %7 = load ptr, ptr %6, align 8, !tbaa !62
  %8 = tail call i64 @rb_wb_protected_newobj_of(ptr noundef %7, i64 noundef %0, i64 noundef 20, i64 noundef 40) #19
  %9 = inttoptr i64 %8 to ptr
  %10 = tail call i32 @rb_enc_to_index(ptr noundef %2) #21
  tail call void @rb_enc_set_index(i64 noundef %8, i32 noundef %10) #19
  tail call void @rb_obj_freeze_inline(i64 noundef %8) #19
  %11 = getelementptr inbounds nuw i8, ptr %9, i64 24
  store i64 %1, ptr %11, align 8, !tbaa !32
  %12 = icmp eq i64 %1, 0
  %13 = and i64 %1, 7
  %14 = icmp ne i64 %13, 0
  %15 = or i1 %12, %14
  br i1 %15, label %rb_obj_write.exit, label %16

16:                                               ; preds = %4
  tail call void @rb_gc_writebarrier(i64 noundef %8, i64 noundef %1) #19
  br label %rb_obj_write.exit

rb_obj_write.exit:                                ; preds = %4, %16
  %17 = getelementptr inbounds nuw i8, ptr %9, i64 32
  store i64 %3, ptr %17, align 8, !tbaa !31
  %18 = tail call i64 @rb_str_hash(i64 noundef %1) #19
  %19 = ashr i64 %18, 1
  %20 = getelementptr inbounds nuw i8, ptr %9, i64 16
  store i64 %19, ptr %20, align 8, !tbaa !64
  %21 = load ptr, ptr getelementptr inbounds nuw (i8, ptr @ruby_global_symbols, i64 8), align 8, !tbaa !15
  tail call void @rb_st_add_direct(ptr noundef %21, i64 noundef %1, i64 noundef %8) #19
  %22 = load i64, ptr getelementptr inbounds nuw (i8, ptr @ruby_global_symbols, i64 24), align 8, !tbaa !7
  %23 = tail call i64 @rb_hash_aset(i64 noundef %22, i64 noundef %1, i64 noundef 20) #19
  %24 = load i16, ptr @ruby_symbol__create_semaphore, align 2, !tbaa !65
  %.not = icmp eq i16 %24, 0
  br i1 %.not, label %34, label %25, !prof !28

25:                                               ; preds = %rb_obj_write.exit
  call void @llvm.lifetime.start.p0(i64 4, ptr nonnull %5) #19
  %26 = call ptr @rb_source_location_cstr(ptr noundef nonnull %5) #19
  %.not20 = icmp eq ptr %26, null
  %spec.store.select = select i1 %.not20, ptr @.str.13, ptr %26
  call void asm sideeffect "", "*m,~{dirflag},~{fpsr},~{flags}"(ptr nonnull elementtype(i16) @ruby_symbol__create_semaphore) #19, !srcloc !66
  %27 = load i64, ptr %11, align 8, !tbaa !29
  %28 = inttoptr i64 %27 to ptr
  %29 = load i64, ptr %28, align 8, !tbaa !26, !noalias !67
  %30 = and i64 %29, 8192
  %.not.i.i = icmp eq i64 %30, 0
  %31 = getelementptr inbounds nuw i8, ptr %28, i64 24
  br i1 %.not.i.i, label %RSTRING_PTR.exit, label %32

32:                                               ; preds = %25
  %.sroa.2.0.copyload.i = load ptr, ptr %31, align 8
  br label %RSTRING_PTR.exit

RSTRING_PTR.exit:                                 ; preds = %25, %32
  %.sroa.2.0.i = phi ptr [ %.sroa.2.0.copyload.i, %32 ], [ %31, %25 ]
  %33 = load i32, ptr %5, align 4, !tbaa !44
  call void asm sideeffect ".altmacro\0A.macro _SDT_SIGN x\0A.pushsection .note.stapsdt,\22\22,\22note\22\0A.iflt \\x\0A.ascii \22-\22\0A.endif\0A.popsection\0A.endm\0A.macro _SDT_SIZE_ x\0A.pushsection .note.stapsdt,\22\22,\22note\22\0A.ascii \22\\x\22\0A.popsection\0A.endm\0A.macro _SDT_SIZE x\0A_SDT_SIZE_ %((-(-\\x*((-\\x>0)-(-\\x<0))))>>8)\0A.endm\0A.macro _SDT_TYPE_ x\0A.pushsection .note.stapsdt,\22\22,\22note\22\0A.ifc 8,\\x\0A.ascii \22f\22\0A.endif\0A.ascii \22@\22\0A.popsection\0A.endm\0A.macro _SDT_TYPE x\0A_SDT_TYPE_ %((\\x)&(0xff))\0A.endm\0A990: nop\0A.pushsection .note.stapsdt,\22?\22,\22note\22\0A.balign 4\0A.4byte 992f-991f,994f-993f,3\0A991: .asciz \22stapsdt\22\0A992: .balign 4\0A993: .8byte 990b\0A.8byte _.stapsdt.base\0A.8byte ruby_symbol__create_semaphore\0A.asciz \22ruby\22\0A.asciz \22symbol__create\22\0A_SDT_SIGN ${0:n}\0A_SDT_SIZE ${0:n}\0A_SDT_TYPE ${0:n}\0A.ascii \22$1\22\0A.ascii \22\\x20\22\0A_SDT_SIGN ${2:n}\0A_SDT_SIZE ${2:n}\0A_SDT_TYPE ${2:n}\0A.ascii \22$3\22\0A.ascii \22\\x20\22\0A_SDT_SIGN ${4:n}\0A_SDT_SIZE ${4:n}\0A_SDT_TYPE ${4:n}\0A.ascii \22$5\22\0A.ascii \22\\x00\22\0A.purgem _SDT_SIGN\0A.purgem _SDT_SIZE_\0A.purgem _SDT_SIZE\0A.purgem _SDT_TYPE_\0A.purgem _SDT_TYPE\0A994: .balign 4\0A.popsection\0A", "n,norfxy,n,norfxy,n,norfxy,~{dirflag},~{fpsr},~{flags}"(i32 -2053, ptr %.sroa.2.0.i, i32 -2053, ptr nonnull %spec.store.select, i32 1025, i32 %33) #19, !srcloc !70
  call void asm sideeffect ".ifndef _.stapsdt.base\0A.pushsection .stapsdt.base,\22aG\22,\22progbits\22,.stapsdt.base,comdat\0A.weak _.stapsdt.base\0A.hidden _.stapsdt.base\0A_.stapsdt.base: .space 1\0A.size _.stapsdt.base,1\0A.popsection\0A.endif\0A", "~{dirflag},~{fpsr},~{flags}"() #19, !srcloc !71
  call void @llvm.lifetime.end.p0(i64 4, ptr nonnull %5) #19
  br label %34

34:                                               ; preds = %RSTRING_PTR.exit, %rb_obj_write.exit
  ret i64 %8
}